; ModuleID = '20/198.c'
source_filename = "20/198.c"
target datalayout = "e-m:e-p270:32:32-p271:32:32-p272:64:64-i64:64-f80:128-n8:16:32:64-S128"
target triple = "x86_64-pc-linux-gnu"

@.str = private unnamed_addr constant [6 x i8] c"%s %s\00", align 1
@.str.1 = private unnamed_addr constant [4 x i8] c"%s\0A\00", align 1

; Function Attrs: noinline nounwind uwtable
define dso_local void @main() #0 {
  %1 = alloca [15 x i8], align 1
  %2 = alloca [3 x i8], align 1
  %3 = alloca i32, align 4
  %4 = alloca i32, align 4
  %5 = alloca i32, align 4
  br label %6

6:                                                ; preds = %83, %0
  %7 = getelementptr inbounds [15 x i8], [15 x i8]* %1, i64 0, i64 0
  %8 = getelementptr inbounds [3 x i8], [3 x i8]* %2, i64 0, i64 0
  %9 = call i32 (i8*, ...) @__isoc99_scanf(i8* getelementptr inbounds ([6 x i8], [6 x i8]* @.str, i64 0, i64 0), i8* %7, i8* %8)
  %10 = icmp ne i32 %9, -1
  br i1 %10, label %11, label %90

11:                                               ; preds = %6
  %12 = getelementptr inbounds [15 x i8], [15 x i8]* %1, i64 0, i64 0
  %13 = call i64 @strlen(i8* %12) #3
  %14 = trunc i64 %13 to i32
  store i32 %14, i32* %3, align 4
  store i32 0, i32* %5, align 4
  %15 = load i32, i32* %3, align 4
  %16 = sext i32 %15 to i64
  %17 = getelementptr inbounds [15 x i8], [15 x i8]* %1, i64 0, i64 %16
  store i8 97, i8* %17, align 1
  %18 = getelementptr inbounds [3 x i8], [3 x i8]* %2, i64 0, i64 3
  store i8 97, i8* %18, align 1
  store i32 1, i32* %4, align 4
  br label %19

19:                                               ; preds = %39, %11
  %20 = load i32, i32* %4, align 4
  %21 = load i32, i32* %3, align 4
  %22 = sub nsw i32 %21, 1
  %23 = icmp sle i32 %20, %22
  br i1 %23, label %24, label %42

24:                                               ; preds = %19
  %25 = load i32, i32* %4, align 4
  %26 = sext i32 %25 to i64
  %27 = getelementptr inbounds [15 x i8], [15 x i8]* %1, i64 0, i64 %26
  %28 = load i8, i8* %27, align 1
  %29 = sext i8 %28 to i32
  %30 = load i32, i32* %5, align 4
  %31 = sext i32 %30 to i64
  %32 = getelementptr inbounds [15 x i8], [15 x i8]* %1, i64 0, i64 %31
  %33 = load i8, i8* %32, align 1
  %34 = sext i8 %33 to i32
  %35 = icmp sgt i32 %29, %34
  br i1 %35, label %36, label %38

36:                                               ; preds = %24
  %37 = load i32, i32* %4, align 4
  store i32 %37, i32* %5, align 4
  br label %38

38:                                               ; preds = %36, %24
  br label %39

39:                                               ; preds = %38
  %40 = load i32, i32* %4, align 4
  %41 = add nsw i32 %40, 1
  store i32 %41, i32* %4, align 4
  br label %19

42:                                               ; preds = %19
  %43 = load i32, i32* %3, align 4
  store i32 %43, i32* %4, align 4
  br label %44

44:                                               ; preds = %58, %42
  %45 = load i32, i32* %4, align 4
  %46 = load i32, i32* %5, align 4
  %47 = add nsw i32 %46, 1
  %48 = icmp sge i32 %45, %47
  br i1 %48, label %49, label %61

49:                                               ; preds = %44
  %50 = load i32, i32* %4, align 4
  %51 = sext i32 %50 to i64
  %52 = getelementptr inbounds [15 x i8], [15 x i8]* %1, i64 0, i64 %51
  %53 = load i8, i8* %52, align 1
  %54 = load i32, i32* %4, align 4
  %55 = add nsw i32 %54, 3
  %56 = sext i32 %55 to i64
  %57 = getelementptr inbounds [15 x i8], [15 x i8]* %1, i64 0, i64 %56
  store i8 %53, i8* %57, align 1
  br label %58

58:                                               ; preds = %49
  %59 = load i32, i32* %4, align 4
  %60 = add nsw i32 %59, -1
  store i32 %60, i32* %4, align 4
  br label %44

61:                                               ; preds = %44
  %62 = load i32, i32* %5, align 4
  %63 = add nsw i32 %62, 1
  store i32 %63, i32* %4, align 4
  br label %64

64:                                               ; preds = %80, %61
  %65 = load i32, i32* %4, align 4
  %66 = load i32, i32* %5, align 4
  %67 = add nsw i32 %66, 3
  %68 = icmp sle i32 %65, %67
  br i1 %68, label %69, label %83

69:                                               ; preds = %64
  %70 = load i32, i32* %4, align 4
  %71 = sub nsw i32 %70, 1
  %72 = load i32, i32* %5, align 4
  %73 = sub nsw i32 %71, %72
  %74 = sext i32 %73 to i64
  %75 = getelementptr inbounds [3 x i8], [3 x i8]* %2, i64 0, i64 %74
  %76 = load i8, i8* %75, align 1
  %77 = load i32, i32* %4, align 4
  %78 = sext i32 %77 to i64
  %79 = getelementptr inbounds [15 x i8], [15 x i8]* %1, i64 0, i64 %78
  store i8 %76, i8* %79, align 1
  br label %80

80:                                               ; preds = %69
  %81 = load i32, i32* %4, align 4
  %82 = add nsw i32 %81, 1
  store i32 %82, i32* %4, align 4
  br label %64

83:                                               ; preds = %64
  %84 = load i32, i32* %3, align 4
  %85 = add nsw i32 %84, 3
  %86 = sext i32 %85 to i64
  %87 = getelementptr inbounds [15 x i8], [15 x i8]* %1, i64 0, i64 %86
  store i8 0, i8* %87, align 1
  %88 = getelementptr inbounds [15 x i8], [15 x i8]* %1, i64 0, i64 0
  %89 = call i32 (i8*, ...) @printf(i8* getelementptr inbounds ([4 x i8], [4 x i8]* @.str.1, i64 0, i64 0), i8* %88)
  br label %6

90:                                               ; preds = %6
  ret void
}

declare dso_local i32 @__isoc99_scanf(i8*, ...) #1

; Function Attrs: nounwind readonly
declare dso_local i64 @strlen(i8*) #2

declare dso_local i32 @printf(i8*, ...) #1


!llvm.module.flags = !{!0}
!llvm.ident = !{!1}

!0 = !{i32 1, !"wchar_size", i32 4}
!1 = !{!"clang version 10.0.0-4ubuntu1 "}
